; Function Attrs: mustprogress nounwind uwtable
define dso_local void @_ZN4llvm15DwarfExpression14emitLegacySExtEj(ptr noundef nonnull align 8 dereferenceable(88) %0, i32 noundef %1) local_unnamed_addr #0 align 2 {
  %3 = load ptr, ptr %0, align 8
  %4 = load ptr, ptr %3, align 8
  tail call void %4(ptr noundef nonnull align 8 dereferenceable(88) %0, i8 noundef zeroext 18, ptr noundef null) #13
  %5 = load ptr, ptr %0, align 8
  %6 = load ptr, ptr %5, align 8
  tail call void %6(ptr noundef nonnull align 8 dereferenceable(88) %0, i8 noundef zeroext 16, ptr noundef null) #13
  %7 = add i32 %1, -1
  %8 = zext i32 %7 to i64
  %9 = load ptr, ptr %0, align 8
  %10 = getelementptr inbounds i8, ptr %9, i64 16
  %11 = load ptr, ptr %10, align 8
  tail call void %11(ptr noundef nonnull align 8 dereferenceable(88) %0, i64 noundef %8) #13
  %12 = load ptr, ptr %0, align 8
  %13 = load ptr, ptr %12, align 8
  tail call void %13(ptr noundef nonnull align 8 dereferenceable(88) %0, i8 noundef zeroext 37, ptr noundef null) #13
  %14 = load ptr, ptr %0, align 8
  %15 = load ptr, ptr %14, align 8
  tail call void %15(ptr noundef nonnull align 8 dereferenceable(88) %0, i8 noundef zeroext 48, ptr noundef null) #13
  %16 = load ptr, ptr %0, align 8
  %17 = load ptr, ptr %16, align 8
  tail call void %17(ptr noundef nonnull align 8 dereferenceable(88) %0, i8 noundef zeroext 32, ptr noundef null) #13
  %18 = load ptr, ptr %0, align 8
  %19 = load ptr, ptr %18, align 8
  tail call void %19(ptr noundef nonnull align 8 dereferenceable(88) %0, i8 noundef zeroext 30, ptr noundef null) #13
  %20 = load ptr, ptr %0, align 8
  %21 = load ptr, ptr %20, align 8
  tail call void %21(ptr noundef nonnull align 8 dereferenceable(88) %0, i8 noundef zeroext 16, ptr noundef null) #13
  %22 = zext i32 %1 to i64
  %23 = load ptr, ptr %0, align 8
  %24 = getelementptr inbounds i8, ptr %23, i64 16
  %25 = load ptr, ptr %24, align 8
  tail call void %25(ptr noundef nonnull align 8 dereferenceable(88) %0, i64 noundef %22) #13
  %26 = load ptr, ptr %0, align 8
  %27 = load ptr, ptr %26, align 8
  tail call void %27(ptr noundef nonnull align 8 dereferenceable(88) %0, i8 noundef zeroext 36, ptr noundef null) #13
  %28 = load ptr, ptr %0, align 8
  %29 = load ptr, ptr %28, align 8
  tail call void %29(ptr noundef nonnull align 8 dereferenceable(88) %0, i8 noundef zeroext 33, ptr noundef null) #13
  ret void
}